target datalayout = "e-m:e-p270:32:32-p271:32:32-p272:64:64-i64:64-i128:128-f80:128-n8:16:32:64-S128"
target triple = "x86_64-pc-linux-gnu"

%"class.std::vector.10" = type { %"struct.std::_Vector_base.11" }
%"struct.std::_Vector_base.11" = type { %"struct.std::_Vector_base<float, std::allocator<float>>::_Vector_impl" }
%"struct.std::_Vector_base<float, std::allocator<float>>::_Vector_impl" = type { %"struct.std::_Vector_base<float, std::allocator<float>>::_Vector_impl_data" }
%"struct.std::_Vector_base<float, std::allocator<float>>::_Vector_impl_data" = type { ptr, ptr, ptr }
%"struct.faiss::Index" = type <{ ptr, i32, [4 x i8], i64, i8, i8, [2 x i8], i32, float, [4 x i8] }>
%"struct.faiss::IndexIVF" = type <{ %"struct.faiss::Index.base", [4 x i8], %"struct.faiss::IndexIVFInterface", ptr, i8, [7 x i8], i64, i32, i32, %"struct.faiss::DirectMap", i8, [7 x i8] }>
%"struct.faiss::Index.base" = type <{ ptr, i32, [4 x i8], i64, i8, i8, [2 x i8], i32, float }>
%"struct.faiss::IndexIVFInterface" = type { ptr, %"struct.faiss::Level1Quantizer", i64, i64 }
%"struct.faiss::Level1Quantizer" = type { ptr, i64, i8, i8, %"struct.faiss::ClusteringParameters", ptr }
%"struct.faiss::ClusteringParameters" = type { i32, i32, i8, i8, i8, i8, i8, i32, i32, i32, i64 }
%"struct.faiss::DirectMap" = type { i32, %"class.std::vector", %"class.std::unordered_map" }
%"class.std::vector" = type { %"struct.std::_Vector_base" }
%"struct.std::_Vector_base" = type { %"struct.std::_Vector_base<long, std::allocator<long>>::_Vector_impl" }
%"struct.std::_Vector_base<long, std::allocator<long>>::_Vector_impl" = type { %"struct.std::_Vector_base<long, std::allocator<long>>::_Vector_impl_data" }
%"struct.std::_Vector_base<long, std::allocator<long>>::_Vector_impl_data" = type { ptr, ptr, ptr }
%"class.std::unordered_map" = type { %"class.std::_Hashtable" }
%"class.std::_Hashtable" = type { ptr, i64, %"struct.std::__detail::_Hash_node_base", i64, %"struct.std::__detail::_Prime_rehash_policy", ptr }
%"struct.std::__detail::_Hash_node_base" = type { ptr }
%"struct.std::__detail::_Prime_rehash_policy" = type { float, i64 }
%"struct.faiss::(anonymous namespace)::AQInvertedListScanner" = type { %"struct.faiss::InvertedListScanner", ptr, ptr, %"class.std::vector.10", ptr, ptr }
%"struct.faiss::InvertedListScanner" = type { ptr, i64, i8, i8, ptr, i64 }
%"struct.faiss::(anonymous namespace)::AQInvertedListScannerLUT.27" = type <{ %"struct.faiss::(anonymous namespace)::AQInvertedListScanner", %"class.std::vector.10", %"class.std::vector.10", float, [4 x i8] }>

; Function Attrs: mustprogress nounwind uwtable
define internal void @_ZN5faiss12_GLOBAL__N_121AQInvertedListScanner9set_queryEPKf(ptr noundef nonnull align 8 dereferenceable(96) %0, ptr noundef %1) unnamed_addr #0 align 2 {
  %3 = alloca ptr, align 8
  %4 = alloca ptr, align 8
  store ptr %0, ptr %3, align 8
  store ptr %1, ptr %4, align 8
  %5 = load ptr, ptr %3, align 8
  %6 = load ptr, ptr %4, align 8
  %7 = getelementptr inbounds %"struct.faiss::(anonymous namespace)::AQInvertedListScanner", ptr %5, i32 0, i32 4
  store ptr %6, ptr %7, align 8
  ret void
}

; Function Attrs: mustprogress uwtable
define internal void @_ZN5faiss12_GLOBAL__N_124AQInvertedListScannerLUTILb0ELNS_17AdditiveQuantizer13Search_type_tE3EE9set_queryEPKf(ptr noundef nonnull align 8 dereferenceable(148) %0, ptr noundef %1) unnamed_addr #2 align 2 {
  %3 = alloca ptr, align 8
  %4 = alloca ptr, align 8
  store ptr %0, ptr %3, align 8
  store ptr %1, ptr %4, align 8
  %5 = load ptr, ptr %3, align 8
  %6 = load ptr, ptr %4, align 8
  call void @_ZN5faiss12_GLOBAL__N_121AQInvertedListScanner9set_queryEPKf(ptr noundef nonnull align 8 dereferenceable(96) %5, ptr noundef %6)
  %7 = getelementptr inbounds %"struct.faiss::(anonymous namespace)::AQInvertedListScanner", ptr %5, i32 0, i32 1
  %8 = load ptr, ptr %7, align 8
  %9 = getelementptr inbounds %"struct.faiss::IndexIVF", ptr %8, i32 0, i32 10
  %10 = load i8, ptr %9, align 8
  %11 = trunc i8 %10 to i1
  br i1 %11, label %21, label %12

12:                                               ; preds = %2
  %13 = load ptr, ptr %4, align 8
  %14 = getelementptr inbounds %"struct.faiss::(anonymous namespace)::AQInvertedListScanner", ptr %5, i32 0, i32 1
  %15 = load ptr, ptr %14, align 8
  %16 = getelementptr inbounds %"struct.faiss::Index", ptr %15, i32 0, i32 1
  %17 = load i32, ptr %16, align 8
  %18 = sext i32 %17 to i64
  %19 = call noundef float @_ZN5faiss15fvec_norm_L2sqrEPKfm(ptr noundef %13, i64 noundef %18)
  %20 = getelementptr inbounds %"struct.faiss::(anonymous namespace)::AQInvertedListScannerLUT.27", ptr %5, i32 0, i32 3
  store float %19, ptr %20, align 8
  br label %21

21:                                               ; preds = %12, %2
  ret void
}